target datalayout = "e-m:e-p270:32:32-p271:32:32-p272:64:64-i64:64-i128:128-f80:128-n8:16:32:64-S128"
target triple = "x86_64-pc-linux-gnu"

%"class.std::basic_streambuf" = type { ptr, ptr, ptr, ptr, ptr, ptr, ptr, %"class.std::locale" }
%"class.std::locale" = type { ptr }
%"class.std::__cxx11::basic_string" = type { %"struct.std::__cxx11::basic_string<char>::_Alloc_hider", i64, %union.anon }
%"struct.std::__cxx11::basic_string<char>::_Alloc_hider" = type { ptr }
%union.anon = type { i64, [8 x i8] }
%"class.std::basic_ios" = type { %"class.std::ios_base", ptr, i8, i8, ptr, ptr, ptr, ptr }
%"class.std::ios_base" = type { ptr, i64, i64, i32, i32, i32, ptr, %"struct.std::ios_base::_Words", [8 x %"struct.std::ios_base::_Words"], i32, ptr, %"class.std::locale" }
%"struct.std::ios_base::_Words" = type { ptr, i64 }
%"class.std::basic_ifstream" = type { %"class.std::basic_istream.base", %"class.std::basic_filebuf", %"class.std::basic_ios" }
%"class.std::basic_istream.base" = type { ptr, i64 }
%"class.std::basic_filebuf" = type { %"class.std::basic_streambuf", %union.pthread_mutex_t, %"class.std::__basic_file", i32, %struct.__mbstate_t, %struct.__mbstate_t, %struct.__mbstate_t, ptr, i64, i8, i8, i8, i8, ptr, ptr, i8, ptr, ptr, i64, ptr, ptr }
%union.pthread_mutex_t = type { %struct.__pthread_mutex_s }
%struct.__pthread_mutex_s = type { i32, i32, i32, i32, i32, i16, i16, %struct.__pthread_internal_list }
%struct.__pthread_internal_list = type { ptr, ptr }
%"class.std::__basic_file" = type <{ ptr, i8, [7 x i8] }>
%struct.__mbstate_t = type { i32, %union.anon.4 }
%union.anon.4 = type { i32 }
%"class.std::filesystem::__cxx11::path" = type { %"class.std::__cxx11::basic_string", %"struct.std::filesystem::__cxx11::path::_List" }
%"struct.std::filesystem::__cxx11::path::_List" = type { %"class.std::unique_ptr" }
%"class.std::unique_ptr" = type { %"struct.std::__uniq_ptr_data" }
%"struct.std::__uniq_ptr_data" = type { %"class.std::__uniq_ptr_impl" }
%"class.std::__uniq_ptr_impl" = type { %"class.std::tuple" }
%"class.std::tuple" = type { %"struct.std::_Tuple_impl" }
%"struct.std::_Tuple_impl" = type { %"struct.std::_Head_base.1" }
%"struct.std::_Head_base.1" = type { ptr }
%class.anon.2 = type { i8 }

@_ZTISt9exception = external constant ptr

; Function Attrs: mustprogress nounwind uwtable
define available_externally noundef ptr @_ZNKSt7__cxx1112basic_stringIcSt11char_traitsIcESaIcEE7_M_dataEv(ptr noundef nonnull align 8 dereferenceable(32) %0) #7 align 2 {
  %2 = alloca ptr, align 8
  store ptr %0, ptr %2, align 8, !tbaa !41
  %3 = load ptr, ptr %2, align 8
  %4 = getelementptr inbounds nuw %"class.std::__cxx11::basic_string", ptr %3, i32 0, i32 0
  %5 = getelementptr inbounds nuw %"struct.std::__cxx11::basic_string<char>::_Alloc_hider", ptr %4, i32 0, i32 0
  %6 = load ptr, ptr %5, align 8, !tbaa !93
  ret ptr %6
}

; Function Attrs: mustprogress nounwind uwtable
define available_externally noundef ptr @_ZNKSt7__cxx1112basic_stringIcSt11char_traitsIcESaIcEE5c_strEv(ptr noundef nonnull align 8 dereferenceable(32) %0) #7 align 2 {
  %2 = alloca ptr, align 8
  store ptr %0, ptr %2, align 8, !tbaa !41
  %3 = load ptr, ptr %2, align 8
  %4 = call noundef ptr @_ZNKSt7__cxx1112basic_stringIcSt11char_traitsIcESaIcEE7_M_dataEv(ptr noundef nonnull align 8 dereferenceable(32) %3)
  ret ptr %4
}

; Function Attrs: mustprogress nounwind uwtable
define linkonce_odr noundef ptr @_ZNKSt10filesystem7__cxx114path5c_strEv(ptr noundef nonnull align 8 dereferenceable(40) %0) #7 comdat align 2 {
  %2 = alloca ptr, align 8
  store ptr %0, ptr %2, align 8, !tbaa !3
  %3 = load ptr, ptr %2, align 8
  %4 = getelementptr inbounds nuw %"class.std::filesystem::__cxx11::path", ptr %3, i32 0, i32 0
  %5 = call noundef ptr @_ZNKSt7__cxx1112basic_stringIcSt11char_traitsIcESaIcEE5c_strEv(ptr noundef nonnull align 8 dereferenceable(32) %4) #3
  ret ptr %5
}

; Function Attrs: inlinehint mustprogress nounwind uwtable
define linkonce_odr noundef nonnull align 4 dereferenceable(4) ptr @_ZSt3maxIiERKT_S2_S2_(ptr noundef nonnull align 4 dereferenceable(4) %0, ptr noundef nonnull align 4 dereferenceable(4) %1) #6 comdat {
  %3 = alloca ptr, align 8
  %4 = alloca ptr, align 8
  %5 = alloca ptr, align 8
  store ptr %0, ptr %4, align 8, !tbaa !15
  store ptr %1, ptr %5, align 8, !tbaa !15
  %6 = load ptr, ptr %4, align 8, !tbaa !15
  %7 = load i32, ptr %6, align 4, !tbaa !8
  %8 = load ptr, ptr %5, align 8, !tbaa !15
  %9 = load i32, ptr %8, align 4, !tbaa !8
  %10 = icmp slt i32 %7, %9
  br i1 %10, label %11, label %13

11:                                               ; preds = %2
  %12 = load ptr, ptr %5, align 8, !tbaa !15
  store ptr %12, ptr %3, align 8
  br label %15

13:                                               ; preds = %2
  %14 = load ptr, ptr %4, align 8, !tbaa !15
  store ptr %14, ptr %3, align 8
  br label %15

15:                                               ; preds = %13, %11
  %16 = load ptr, ptr %3, align 8
  ret ptr %16
}

; Function Attrs: mustprogress nounwind uwtable
define linkonce_odr noundef i32 @_ZN7xgboost6common10DivRoundUpIiiEET_S2_T0_(i32 noundef %0, i32 noundef %1) #7 comdat {
  %3 = alloca i32, align 4
  %4 = alloca i32, align 4
  store i32 %0, ptr %3, align 4, !tbaa !8
  store i32 %1, ptr %4, align 4, !tbaa !8
  %5 = load i32, ptr %3, align 4, !tbaa !8
  %6 = sitofp i32 %5 to double
  %7 = load i32, ptr %4, align 4, !tbaa !8
  %8 = sitofp i32 %7 to double
  %9 = fdiv double %6, %8
  %10 = call double @llvm.ceil.f64(double %9)
  %11 = fptosi double %10 to i32
  ret i32 %11
}

; Function Attrs: mustprogress uwtable
define linkonce_odr void @_ZNSt14basic_ifstreamIcSt11char_traitsIcEEC1INSt10filesystem7__cxx114pathES6_EERKT_St13_Ios_Openmode(ptr noundef nonnull align 8 dereferenceable(256) %0, ptr noundef nonnull align 8 dereferenceable(40) %1, i32 noundef %2) unnamed_addr #4 comdat align 2 {
  %4 = alloca ptr, align 8
  %5 = alloca ptr, align 8
  %6 = alloca i32, align 4
  store ptr %0, ptr %4, align 8, !tbaa !17
  store ptr %1, ptr %5, align 8, !tbaa !3
  store i32 %2, ptr %6, align 4, !tbaa !19
  %7 = load ptr, ptr %4, align 8
  %8 = load ptr, ptr %5, align 8, !tbaa !3
  %9 = call noundef ptr @_ZNKSt10filesystem7__cxx114path5c_strEv(ptr noundef nonnull align 8 dereferenceable(40) %8) #3
  %10 = load i32, ptr %6, align 4, !tbaa !19
  call void @_ZNSt14basic_ifstreamIcSt11char_traitsIcEEC1EPKcSt13_Ios_Openmode(ptr noundef nonnull align 8 dereferenceable(256) %7, ptr noundef %9, i32 noundef %10)
  ret void
}

; Function Attrs: mustprogress nounwind uwtable
define noundef i32 @_ZN7xgboost6common16GetCGroupV2CountERKNSt10filesystem7__cxx114pathE(ptr noundef nonnull align 8 dereferenceable(40) %0) #7 personality ptr @__gxx_personality_v0 {
  %2 = alloca i32, align 4
  %3 = alloca ptr, align 8
  %4 = alloca i32, align 4
  %5 = alloca i32, align 4
  %6 = alloca i32, align 4
  %7 = alloca %class.anon.2, align 1
  %8 = alloca %"class.std::basic_ifstream", align 8
  %9 = alloca ptr, align 8
  %10 = alloca i32, align 4
  %11 = alloca ptr, align 8
  %12 = alloca i32, align 4
  %13 = alloca i32, align 4
  %14 = alloca i32, align 4
  store ptr %0, ptr %3, align 8, !tbaa !3
  call void @llvm.lifetime.start.p0(i64 4, ptr %4) #3
  store i32 -1, ptr %4, align 4, !tbaa !8
  call void @llvm.lifetime.start.p0(i64 4, ptr %5) #3
  store i32 0, ptr %5, align 4, !tbaa !8
  call void @llvm.lifetime.start.p0(i64 4, ptr %6) #3
  store i32 0, ptr %6, align 4, !tbaa !8
  call void @llvm.lifetime.start.p0(i64 1, ptr %7) #3
  call void @llvm.lifetime.start.p0(i64 520, ptr %8) #3
  %15 = load ptr, ptr %3, align 8, !tbaa !3
  invoke void @_ZNSt14basic_ifstreamIcSt11char_traitsIcEEC1INSt10filesystem7__cxx114pathES6_EERKT_St13_Ios_Openmode(ptr noundef nonnull align 8 dereferenceable(256) %8, ptr noundef nonnull align 8 dereferenceable(40) %15, i32 noundef 8)
          to label %16 unwind label %21

16:                                               ; preds = %1
  %17 = invoke noundef nonnull align 8 dereferenceable(16) ptr @_ZNSirsERi(ptr noundef nonnull align 8 dereferenceable(16) %8, ptr noundef nonnull align 4 dereferenceable(4) %5)
          to label %18 unwind label %25

18:                                               ; preds = %16
  %19 = invoke noundef nonnull align 8 dereferenceable(16) ptr @_ZNSirsERi(ptr noundef nonnull align 8 dereferenceable(16) %8, ptr noundef nonnull align 4 dereferenceable(4) %6)
          to label %20 unwind label %25

20:                                               ; preds = %18
  call void @_ZNSt14basic_ifstreamIcSt11char_traitsIcEED1Ev(ptr noundef nonnull align 8 dereferenceable(256) %8) #3
  call void @llvm.lifetime.end.p0(i64 520, ptr %8) #3
  br label %40

21:                                               ; preds = %1
  %22 = landingpad { ptr, i32 }
          catch ptr @_ZTISt9exception
          catch ptr null
  %23 = extractvalue { ptr, i32 } %22, 0
  store ptr %23, ptr %9, align 8
  %24 = extractvalue { ptr, i32 } %22, 1
  store i32 %24, ptr %10, align 4
  br label %29

25:                                               ; preds = %18, %16
  %26 = landingpad { ptr, i32 }
          catch ptr @_ZTISt9exception
          catch ptr null
  %27 = extractvalue { ptr, i32 } %26, 0
  store ptr %27, ptr %9, align 8
  %28 = extractvalue { ptr, i32 } %26, 1
  store i32 %28, ptr %10, align 4
  call void @_ZNSt14basic_ifstreamIcSt11char_traitsIcEED1Ev(ptr noundef nonnull align 8 dereferenceable(256) %8) #3
  br label %29

29:                                               ; preds = %25, %21
  call void @llvm.lifetime.end.p0(i64 520, ptr %8) #3
  br label %30

30:                                               ; preds = %29
  %31 = load i32, ptr %10, align 4
  %32 = call i32 @llvm.eh.typeid.for.p0(ptr @_ZTISt9exception) #3
  %33 = icmp eq i32 %31, %32
  br i1 %33, label %34, label %61

34:                                               ; preds = %30
  call void @llvm.lifetime.start.p0(i64 8, ptr %11) #3
  %35 = load ptr, ptr %9, align 8
  %36 = call ptr @__cxa_begin_catch(ptr %35) #3
  store ptr %36, ptr %11, align 8
  invoke void @"_ZZN7xgboost6common16GetCGroupV2CountERKNSt10filesystem7__cxx114pathEENK3$_0clEv"(ptr noundef nonnull align 1 dereferenceable(1) %7)
          to label %37 unwind label %58

37:                                               ; preds = %34
  %38 = load i32, ptr %4, align 4, !tbaa !8
  store i32 %38, ptr %2, align 4
  store i32 1, ptr %12, align 4
  invoke void @__cxa_end_catch()
          to label %39 unwind label %58

39:                                               ; preds = %37
  call void @llvm.lifetime.end.p0(i64 8, ptr %11) #3
  br label %56

40:                                               ; preds = %20
  %41 = load i32, ptr %5, align 4, !tbaa !8
  %42 = icmp sgt i32 %41, 0
  br i1 %42, label %43, label %54

43:                                               ; preds = %40
  %44 = load i32, ptr %6, align 4, !tbaa !8
  %45 = icmp sgt i32 %44, 0
  br i1 %45, label %46, label %54

46:                                               ; preds = %43
  call void @llvm.lifetime.start.p0(i64 4, ptr %13) #3
  %47 = load i32, ptr %5, align 4, !tbaa !8
  %48 = load i32, ptr %6, align 4, !tbaa !8
  %49 = invoke noundef i32 @_ZN7xgboost6common10DivRoundUpIiiEET_S2_T0_(i32 noundef %47, i32 noundef %48)
          to label %50 unwind label %58

50:                                               ; preds = %46
  store i32 %49, ptr %13, align 4, !tbaa !8
  call void @llvm.lifetime.start.p0(i64 4, ptr %14) #3
  store i32 1, ptr %14, align 4, !tbaa !8
  %51 = invoke noundef nonnull align 4 dereferenceable(4) ptr @_ZSt3maxIiERKT_S2_S2_(ptr noundef nonnull align 4 dereferenceable(4) %13, ptr noundef nonnull align 4 dereferenceable(4) %14)
          to label %52 unwind label %58

52:                                               ; preds = %50
  %53 = load i32, ptr %51, align 4, !tbaa !8
  store i32 %53, ptr %4, align 4, !tbaa !8
  call void @llvm.lifetime.end.p0(i64 4, ptr %14) #3
  call void @llvm.lifetime.end.p0(i64 4, ptr %13) #3
  br label %54

54:                                               ; preds = %52, %43, %40
  %55 = load i32, ptr %4, align 4, !tbaa !8
  store i32 %55, ptr %2, align 4
  store i32 1, ptr %12, align 4
  br label %56

56:                                               ; preds = %54, %39
  call void @llvm.lifetime.end.p0(i64 1, ptr %7) #3
  call void @llvm.lifetime.end.p0(i64 4, ptr %6) #3
  call void @llvm.lifetime.end.p0(i64 4, ptr %5) #3
  call void @llvm.lifetime.end.p0(i64 4, ptr %4) #3
  %57 = load i32, ptr %2, align 4
  ret i32 %57

58:                                               ; preds = %50, %46, %37, %34
  %59 = landingpad { ptr, i32 }
          catch ptr null
  %60 = extractvalue { ptr, i32 } %59, 0
  call void @__clang_call_terminate(ptr %60) #22
  unreachable

61:                                               ; preds = %30
  %62 = load ptr, ptr %9, align 8
  call void @__clang_call_terminate(ptr %62) #22
  unreachable
}