; Function Attrs: mustprogress nounwind uwtable
define noundef range(i32 -1, -2147483648) i32 @_ZN7xgboost6common16GetCGroupV2CountERKNSt10filesystem7__cxx114pathE(ptr noundef nonnull readonly align 8 captures(none) dereferenceable(40) %0) local_unnamed_addr #3 personality ptr @__gxx_personality_v0 {
  %2 = alloca i32, align 4
  %3 = alloca i32, align 4
  %4 = alloca %"class.std::basic_ifstream", align 8
  call void @llvm.lifetime.start.p0(i64 4, ptr nonnull %2) #23
  store i32 0, ptr %2, align 4, !tbaa !26
  call void @llvm.lifetime.start.p0(i64 4, ptr nonnull %3) #23
  store i32 0, ptr %3, align 4, !tbaa !26
  call void @llvm.lifetime.start.p0(i64 520, ptr nonnull %4) #23
  %5 = load ptr, ptr %0, align 8, !tbaa !3
  invoke void @_ZNSt14basic_ifstreamIcSt11char_traitsIcEEC1EPKcSt13_Ios_Openmode(ptr noundef nonnull align 8 dereferenceable(256) %4, ptr noundef %5, i32 noundef 8)
          to label %_ZNSt14basic_ifstreamIcSt11char_traitsIcEEC1INSt10filesystem7__cxx114pathES6_EERKT_St13_Ios_Openmode.exit unwind label %14

_ZNSt14basic_ifstreamIcSt11char_traitsIcEEC1INSt10filesystem7__cxx114pathES6_EERKT_St13_Ios_Openmode.exit: ; preds = %1
  %6 = invoke noundef nonnull align 8 dereferenceable(16) ptr @_ZNSirsERi(ptr noundef nonnull align 8 dereferenceable(16) %4, ptr noundef nonnull align 4 dereferenceable(4) %2)
          to label %7 unwind label %16

7:                                                ; preds = %_ZNSt14basic_ifstreamIcSt11char_traitsIcEEC1INSt10filesystem7__cxx114pathES6_EERKT_St13_Ios_Openmode.exit
  %8 = invoke noundef nonnull align 8 dereferenceable(16) ptr @_ZNSirsERi(ptr noundef nonnull align 8 dereferenceable(16) %4, ptr noundef nonnull align 4 dereferenceable(4) %3)
          to label %9 unwind label %16

9:                                                ; preds = %7
  call void @_ZNSt14basic_ifstreamIcSt11char_traitsIcEED1Ev(ptr noundef nonnull align 8 dereferenceable(256) %4) #23
  call void @llvm.lifetime.end.p0(i64 520, ptr nonnull %4) #23
  %10 = load i32, ptr %2, align 4, !tbaa !26
  %11 = icmp sgt i32 %10, 0
  %12 = load i32, ptr %3, align 4
  %13 = icmp sgt i32 %12, 0
  %or.cond = select i1 %11, i1 %13, i1 false
  br i1 %or.cond, label %24, label %30

14:                                               ; preds = %1
  %15 = landingpad { ptr, i32 }
          catch ptr @_ZTISt9exception
          catch ptr null
  br label %18

16:                                               ; preds = %7, %_ZNSt14basic_ifstreamIcSt11char_traitsIcEEC1INSt10filesystem7__cxx114pathES6_EERKT_St13_Ios_Openmode.exit
  %17 = landingpad { ptr, i32 }
          catch ptr @_ZTISt9exception
          catch ptr null
  call void @_ZNSt14basic_ifstreamIcSt11char_traitsIcEED1Ev(ptr noundef nonnull align 8 dereferenceable(256) %4) #23
  br label %18

18:                                               ; preds = %16, %14
  %.pn = phi { ptr, i32 } [ %17, %16 ], [ %15, %14 ]
  %.07 = extractvalue { ptr, i32 } %.pn, 1
  %.08 = extractvalue { ptr, i32 } %.pn, 0
  call void @llvm.lifetime.end.p0(i64 520, ptr nonnull %4) #23
  %19 = call i32 @llvm.eh.typeid.for.p0(ptr nonnull @_ZTISt9exception) #23
  %20 = icmp eq i32 %.07, %19
  br i1 %20, label %21, label %34

21:                                               ; preds = %18
  %22 = call ptr @__cxa_begin_catch(ptr %.08) #23
  invoke fastcc void @"_ZZN7xgboost6common16GetCGroupV2CountERKNSt10filesystem7__cxx114pathEENK3$_0clEv"()
          to label %23 unwind label %31

23:                                               ; preds = %21
  invoke void @__cxa_end_catch()
          to label %30 unwind label %31

24:                                               ; preds = %9
  %25 = uitofp nneg i32 %10 to double
  %26 = uitofp nneg i32 %12 to double
  %27 = fdiv double %25, %26
  %28 = call double @llvm.ceil.f64(double %27)
  %29 = fptosi double %28 to i32
  %.sroa.speculated = call i32 @llvm.smax.i32(i32 %29, i32 1)
  br label %30

30:                                               ; preds = %9, %24, %23
  %.0 = phi i32 [ -1, %23 ], [ %.sroa.speculated, %24 ], [ -1, %9 ]
  call void @llvm.lifetime.end.p0(i64 4, ptr nonnull %3) #23
  call void @llvm.lifetime.end.p0(i64 4, ptr nonnull %2) #23
  ret i32 %.0

31:                                               ; preds = %21, %23
  %32 = landingpad { ptr, i32 }
          catch ptr null
  %33 = extractvalue { ptr, i32 } %32, 0
  call void @__clang_call_terminate(ptr %33) #27
  unreachable

34:                                               ; preds = %18
  call void @__clang_call_terminate(ptr %.08) #27
  unreachable
}